// Function: MainScript_InGameUIInit
// RVA: 0xec40a8
// Description: In-game UI init
// Size: 3752 bytes (capped at 4096)
// Analyzed: 2026-07-13 13:58:04
// Binary: libil2cpp.so
// Architecture: AArch64 (ARM64)

// Disassembly:
0x00ec40a8: ff c3 01 d1           sub      sp, sp, #0x70
0x00ec40ac: fd 7b 01 a9           stp      x29, x30, [sp, #0x10]
0x00ec40b0: fc 6f 02 a9           stp      x28, x27, [sp, #0x20]
0x00ec40b4: fa 67 03 a9           stp      x26, x25, [sp, #0x30]
0x00ec40b8: f8 5f 04 a9           stp      x24, x23, [sp, #0x40]
0x00ec40bc: f6 57 05 a9           stp      x22, x21, [sp, #0x50]
0x00ec40c0: f4 4f 06 a9           stp      x20, x19, [sp, #0x60]
0x00ec40c4: 94 9e 00 b0           adrp     x20, #0x2295000
0x00ec40c8: b6 92 00 d0           adrp     x22, #0x211a000
0x00ec40cc: 88 be 55 39           ldrb     w8, [x20, #0x56f]
0x00ec40d0: d6 be 45 f9           ldr      x22, [x22, #0xb78]
0x00ec40d4: f3 03 00 aa           mov      x19, x0
0x00ec40d8: 88 16 00 37           tbnz     w8, #0, #0xec43a8
0x00ec40dc: a0 92 00 d0           adrp     x0, #0x211a000
0x00ec40e0: 00 c0 45 f9           ldr      x0, [x0, #0xb80]
0x00ec40e4: 88 66 fd 97           bl       #0xe1db04
0x00ec40e8: a0 92 00 d0           adrp     x0, #0x211a000
0x00ec40ec: 00 00 41 f9           ldr      x0, [x0, #0x200]
0x00ec40f0: 85 66 fd 97           bl       #0xe1db04
0x00ec40f4: a0 92 00 d0           adrp     x0, #0x211a000
0x00ec40f8: 00 64 42 f9           ldr      x0, [x0, #0x4c8]
0x00ec40fc: 82 66 fd 97           bl       #0xe1db04
0x00ec4100: a0 92 00 d0           adrp     x0, #0x211a000
0x00ec4104: 00 e0 42 f9           ldr      x0, [x0, #0x5c0]
0x00ec4108: 7f 66 fd 97           bl       #0xe1db04
0x00ec410c: a0 92 00 d0           adrp     x0, #0x211a000
0x00ec4110: 00 fc 41 f9           ldr      x0, [x0, #0x3f8]
0x00ec4114: 7c 66 fd 97           bl       #0xe1db04
0x00ec4118: a0 92 00 d0           adrp     x0, #0x211a000
0x00ec411c: 00 04 41 f9           ldr      x0, [x0, #0x208]
0x00ec4120: 79 66 fd 97           bl       #0xe1db04
0x00ec4124: a0 92 00 d0           adrp     x0, #0x211a000
0x00ec4128: 00 c4 45 f9           ldr      x0, [x0, #0xb88]
0x00ec412c: 76 66 fd 97           bl       #0xe1db04
0x00ec4130: a0 92 00 d0           adrp     x0, #0x211a000
0x00ec4134: 00 c8 45 f9           ldr      x0, [x0, #0xb90]
0x00ec4138: 73 66 fd 97           bl       #0xe1db04
0x00ec413c: a0 92 00 d0           adrp     x0, #0x211a000
0x00ec4140: 00 cc 45 f9           ldr      x0, [x0, #0xb98]
0x00ec4144: 70 66 fd 97           bl       #0xe1db04
0x00ec4148: a0 92 00 d0           adrp     x0, #0x211a000
0x00ec414c: 00 d0 45 f9           ldr      x0, [x0, #0xba0]
0x00ec4150: 6d 66 fd 97           bl       #0xe1db04
0x00ec4154: a0 92 00 d0           adrp     x0, #0x211a000
0x00ec4158: 00 d4 45 f9           ldr      x0, [x0, #0xba8]
0x00ec415c: 6a 66 fd 97           bl       #0xe1db04
0x00ec4160: a0 92 00 d0           adrp     x0, #0x211a000
0x00ec4164: 00 d8 45 f9           ldr      x0, [x0, #0xbb0]
0x00ec4168: 67 66 fd 97           bl       #0xe1db04
0x00ec416c: a0 92 00 d0           adrp     x0, #0x211a000
0x00ec4170: 00 dc 45 f9           ldr      x0, [x0, #0xbb8]
0x00ec4174: 64 66 fd 97           bl       #0xe1db04
0x00ec4178: a0 92 00 d0           adrp     x0, #0x211a000
0x00ec417c: 00 e0 45 f9           ldr      x0, [x0, #0xbc0]
0x00ec4180: 61 66 fd 97           bl       #0xe1db04
0x00ec4184: a0 92 00 d0           adrp     x0, #0x211a000
0x00ec4188: 00 e4 45 f9           ldr      x0, [x0, #0xbc8]
0x00ec418c: 5e 66 fd 97           bl       #0xe1db04
0x00ec4190: a0 92 00 d0           adrp     x0, #0x211a000
0x00ec4194: 00 e8 45 f9           ldr      x0, [x0, #0xbd0]
0x00ec4198: 5b 66 fd 97           bl       #0xe1db04
0x00ec419c: a0 92 00 d0           adrp     x0, #0x211a000
0x00ec41a0: 00 ec 45 f9           ldr      x0, [x0, #0xbd8]
0x00ec41a4: 58 66 fd 97           bl       #0xe1db04
0x00ec41a8: a0 92 00 d0           adrp     x0, #0x211a000
0x00ec41ac: 00 f0 45 f9           ldr      x0, [x0, #0xbe0]
0x00ec41b0: 55 66 fd 97           bl       #0xe1db04
0x00ec41b4: a0 92 00 d0           adrp     x0, #0x211a000
0x00ec41b8: 00 f4 45 f9           ldr      x0, [x0, #0xbe8]
0x00ec41bc: 52 66 fd 97           bl       #0xe1db04
0x00ec41c0: a0 92 00 d0           adrp     x0, #0x211a000
0x00ec41c4: 00 f8 45 f9           ldr      x0, [x0, #0xbf0]
0x00ec41c8: 4f 66 fd 97           bl       #0xe1db04
0x00ec41cc: a0 92 00 d0           adrp     x0, #0x211a000
0x00ec41d0: 00 fc 45 f9           ldr      x0, [x0, #0xbf8]
0x00ec41d4: 4c 66 fd 97           bl       #0xe1db04
0x00ec41d8: a0 92 00 d0           adrp     x0, #0x211a000
0x00ec41dc: 00 00 46 f9           ldr      x0, [x0, #0xc00]
0x00ec41e0: 49 66 fd 97           bl       #0xe1db04
0x00ec41e4: a0 92 00 d0           adrp     x0, #0x211a000
0x00ec41e8: 00 04 46 f9           ldr      x0, [x0, #0xc08]
0x00ec41ec: 46 66 fd 97           bl       #0xe1db04
0x00ec41f0: a0 92 00 d0           adrp     x0, #0x211a000
0x00ec41f4: 00 08 46 f9           ldr      x0, [x0, #0xc10]
0x00ec41f8: 43 66 fd 97           bl       #0xe1db04
0x00ec41fc: a0 92 00 d0           adrp     x0, #0x211a000
0x00ec4200: 00 0c 46 f9           ldr      x0, [x0, #0xc18]
0x00ec4204: 40 66 fd 97           bl       #0xe1db04
0x00ec4208: a0 92 00 d0           adrp     x0, #0x211a000
0x00ec420c: 00 10 46 f9           ldr      x0, [x0, #0xc20]
0x00ec4210: 3d 66 fd 97           bl       #0xe1db04
0x00ec4214: a0 92 00 d0           adrp     x0, #0x211a000
0x00ec4218: 00 18 41 f9           ldr      x0, [x0, #0x230]
0x00ec421c: 3a 66 fd 97           bl       #0xe1db04
0x00ec4220: a0 92 00 d0           adrp     x0, #0x211a000
0x00ec4224: 00 14 46 f9           ldr      x0, [x0, #0xc28]
0x00ec4228: 37 66 fd 97           bl       #0xe1db04
0x00ec422c: a0 92 00 d0           adrp     x0, #0x211a000
0x00ec4230: 00 18 46 f9           ldr      x0, [x0, #0xc30]
0x00ec4234: 34 66 fd 97           bl       #0xe1db04
0x00ec4238: a0 92 00 d0           adrp     x0, #0x211a000
0x00ec423c: 00 1c 46 f9           ldr      x0, [x0, #0xc38]
0x00ec4240: 31 66 fd 97           bl       #0xe1db04
0x00ec4244: a0 92 00 d0           adrp     x0, #0x211a000
0x00ec4248: 00 20 46 f9           ldr      x0, [x0, #0xc40]
0x00ec424c: 2e 66 fd 97           bl       #0xe1db04
0x00ec4250: a0 92 00 d0           adrp     x0, #0x211a000
0x00ec4254: 00 24 46 f9           ldr      x0, [x0, #0xc48]
0x00ec4258: 2b 66 fd 97           bl       #0xe1db04
0x00ec425c: a0 92 00 d0           adrp     x0, #0x211a000
0x00ec4260: 00 28 46 f9           ldr      x0, [x0, #0xc50]
0x00ec4264: 28 66 fd 97           bl       #0xe1db04
0x00ec4268: a0 92 00 d0           adrp     x0, #0x211a000
0x00ec426c: 00 2c 46 f9           ldr      x0, [x0, #0xc58]
0x00ec4270: 25 66 fd 97           bl       #0xe1db04
0x00ec4274: a0 92 00 d0           adrp     x0, #0x211a000
0x00ec4278: 00 30 46 f9           ldr      x0, [x0, #0xc60]
0x00ec427c: 22 66 fd 97           bl       #0xe1db04
0x00ec4280: a0 92 00 d0           adrp     x0, #0x211a000
0x00ec4284: 00 34 46 f9           ldr      x0, [x0, #0xc68]
0x00ec4288: 1f 66 fd 97           bl       #0xe1db04
0x00ec428c: a0 92 00 d0           adrp     x0, #0x211a000
0x00ec4290: 00 38 46 f9           ldr      x0, [x0, #0xc70]
0x00ec4294: 1c 66 fd 97           bl       #0xe1db04
0x00ec4298: a0 92 00 d0           adrp     x0, #0x211a000
0x00ec429c: 00 3c 46 f9           ldr      x0, [x0, #0xc78]
0x00ec42a0: 19 66 fd 97           bl       #0xe1db04
0x00ec42a4: a0 92 00 d0           adrp     x0, #0x211a000
0x00ec42a8: 00 40 46 f9           ldr      x0, [x0, #0xc80]
0x00ec42ac: 16 66 fd 97           bl       #0xe1db04
0x00ec42b0: a0 92 00 d0           adrp     x0, #0x211a000
0x00ec42b4: 00 44 46 f9           ldr      x0, [x0, #0xc88]
0x00ec42b8: 13 66 fd 97           bl       #0xe1db04
0x00ec42bc: a0 92 00 d0           adrp     x0, #0x211a000
0x00ec42c0: 00 48 46 f9           ldr      x0, [x0, #0xc90]
0x00ec42c4: 10 66 fd 97           bl       #0xe1db04
0x00ec42c8: a0 92 00 d0           adrp     x0, #0x211a000
0x00ec42cc: 00 4c 46 f9           ldr      x0, [x0, #0xc98]
0x00ec42d0: 0d 66 fd 97           bl       #0xe1db04
0x00ec42d4: a0 92 00 d0           adrp     x0, #0x211a000
0x00ec42d8: 00 50 46 f9           ldr      x0, [x0, #0xca0]
0x00ec42dc: 0a 66 fd 97           bl       #0xe1db04
0x00ec42e0: a0 92 00 d0           adrp     x0, #0x211a000
0x00ec42e4: 00 54 46 f9           ldr      x0, [x0, #0xca8]
0x00ec42e8: 07 66 fd 97           bl       #0xe1db04
0x00ec42ec: a0 92 00 d0           adrp     x0, #0x211a000
0x00ec42f0: 00 58 46 f9           ldr      x0, [x0, #0xcb0]
0x00ec42f4: 04 66 fd 97           bl       #0xe1db04
0x00ec42f8: a0 92 00 d0           adrp     x0, #0x211a000
0x00ec42fc: 00 5c 46 f9           ldr      x0, [x0, #0xcb8]
0x00ec4300: 01 66 fd 97           bl       #0xe1db04
0x00ec4304: a0 92 00 d0           adrp     x0, #0x211a000
0x00ec4308: 00 60 46 f9           ldr      x0, [x0, #0xcc0]
0x00ec430c: fe 65 fd 97           bl       #0xe1db04
0x00ec4310: a0 92 00 d0           adrp     x0, #0x211a000
0x00ec4314: 00 64 46 f9           ldr      x0, [x0, #0xcc8]
0x00ec4318: fb 65 fd 97           bl       #0xe1db04
0x00ec431c: a0 92 00 d0           adrp     x0, #0x211a000
0x00ec4320: 00 68 46 f9           ldr      x0, [x0, #0xcd0]
0x00ec4324: f8 65 fd 97           bl       #0xe1db04
0x00ec4328: a0 92 00 d0           adrp     x0, #0x211a000
0x00ec432c: 00 6c 46 f9           ldr      x0, [x0, #0xcd8]
0x00ec4330: f5 65 fd 97           bl       #0xe1db04
0x00ec4334: a0 92 00 d0           adrp     x0, #0x211a000
0x00ec4338: 00 bc 45 f9           ldr      x0, [x0, #0xb78]
0x00ec433c: f2 65 fd 97           bl       #0xe1db04
0x00ec4340: a0 92 00 d0           adrp     x0, #0x211a000
0x00ec4344: 00 70 46 f9           ldr      x0, [x0, #0xce0]
0x00ec4348: ef 65 fd 97           bl       #0xe1db04
0x00ec434c: a0 92 00 d0           adrp     x0, #0x211a000
0x00ec4350: 00 74 46 f9           ldr      x0, [x0, #0xce8]
0x00ec4354: ec 65 fd 97           bl       #0xe1db04
0x00ec4358: a0 92 00 d0           adrp     x0, #0x211a000
0x00ec435c: 00 78 46 f9           ldr      x0, [x0, #0xcf0]
0x00ec4360: e9 65 fd 97           bl       #0xe1db04
0x00ec4364: a0 92 00 d0           adrp     x0, #0x211a000
0x00ec4368: 00 7c 46 f9           ldr      x0, [x0, #0xcf8]
0x00ec436c: e6 65 fd 97           bl       #0xe1db04
0x00ec4370: a0 92 00 d0           adrp     x0, #0x211a000
0x00ec4374: 00 80 46 f9           ldr      x0, [x0, #0xd00]
0x00ec4378: e3 65 fd 97           bl       #0xe1db04
0x00ec437c: a0 92 00 d0           adrp     x0, #0x211a000
0x00ec4380: 00 84 46 f9           ldr      x0, [x0, #0xd08]
0x00ec4384: e0 65 fd 97           bl       #0xe1db04
0x00ec4388: a0 92 00 d0           adrp     x0, #0x211a000
0x00ec438c: 00 88 46 f9           ldr      x0, [x0, #0xd10]
0x00ec4390: dd 65 fd 97           bl       #0xe1db04
0x00ec4394: a0 92 00 d0           adrp     x0, #0x211a000
0x00ec4398: 00 8c 46 f9           ldr      x0, [x0, #0xd18]
0x00ec439c: da 65 fd 97           bl       #0xe1db04
0x00ec43a0: 28 00 80 52           mov      w8, #1
0x00ec43a4: 88 be 15 39           strb     w8, [x20, #0x56f]
0x00ec43a8: c0 02 40 f9           ldr      x0, [x22]
0x00ec43ac: e1 03 1f aa           mov      x1, xzr
0x00ec43b0: ff 0f 00 b9           str      wzr, [sp, #0xc]
0x00ec43b4: 30 0f 3c 94           bl       #0x1dc8074
0x00ec43b8: 20 5c 00 b4           cbz      x0, #0xec4f3c
0x00ec43bc: b8 92 00 d0           adrp     x24, #0x211a000
0x00ec43c0: 18 03 41 f9           ldr      x24, [x24, #0x200]
0x00ec43c4: 01 03 40 f9           ldr      x1, [x24]
0x00ec43c8: 76 4b 02 94           bl       #0xf571a0
0x00ec43cc: 80 5b 00 b4           cbz      x0, #0xec4f3c
0x00ec43d0: b7 92 00 d0           adrp     x23, #0x211a000
0x00ec43d4: f7 1a 41 f9           ldr      x23, [x23, #0x230]
0x00ec43d8: 14 80 40 f9           ldr      x20, [x0, #0x100]
0x00ec43dc: b5 92 00 d0           adrp     x21, #0x211a000
0x00ec43e0: e0 02 40 f9           ldr      x0, [x23]
0x00ec43e4: b5 c6 45 f9           ldr      x21, [x21, #0xb88]
0x00ec43e8: 4e 66 fd 97           bl       #0xe1dd20
0x00ec43ec: a2 02 40 f9           ldr      x2, [x21]
0x00ec43f0: e1 03 13 aa           mov      x1, x19
0x00ec43f4: e3 03 1f aa           mov      x3, xzr
0x00ec43f8: f5 03 00 aa           mov      x21, x0
0x00ec43fc: ae 3c 3c 94           bl       #0x1dd36b4
0x00ec4400: f4 59 00 b4           cbz      x20, #0xec4f3c
0x00ec4404: b9 92 00 d0           adrp     x25, #0x211a000
0x00ec4408: 39 4f 46 f9           ldr      x25, [x25, #0xc98]
0x00ec440c: e0 03 14 aa           mov      x0, x20
0x00ec4410: e1 03 15 aa           mov      x1, x21
0x00ec4414: e2 03 1f aa           mov      x2, xzr
0x00ec4418: d0 3c 3c 94           bl       #0x1dd3758
0x00ec441c: 20 03 40 f9           ldr      x0, [x25]
0x00ec4420: e1 03 1f aa           mov      x1, xzr
0x00ec4424: 14 0f 3c 94           bl       #0x1dc8074
0x00ec4428: a0 58 00 b4           cbz      x0, #0xec4f3c
0x00ec442c: 01 03 40 f9           ldr      x1, [x24]
0x00ec4430: 5c 4b 02 94           bl       #0xf571a0
0x00ec4434: 40 58 00 b4           cbz      x0, #0xec4f3c
0x00ec4438: 14 80 40 f9           ldr      x20, [x0, #0x100]
0x00ec443c: e0 02 40 f9           ldr      x0, [x23]
0x00ec4440: b5 92 00 d0           adrp     x21, #0x211a000
0x00ec4444: b5 ee 45 f9           ldr      x21, [x21, #0xbd8]
0x00ec4448: 36 66 fd 97           bl       #0xe1dd20
0x00ec444c: a2 02 40 f9           ldr      x2, [x21]
0x00ec4450: e1 03 13 aa           mov      x1, x19
0x00ec4454: e3 03 1f aa           mov      x3, xzr
0x00ec4458: f5 03 00 aa           mov      x21, x0
0x00ec445c: 96 3c 3c 94           bl       #0x1dd36b4
0x00ec4460: f4 56 00 b4           cbz      x20, #0xec4f3c
0x00ec4464: bb 92 00 d0           adrp     x27, #0x211a000
0x00ec4468: bc 92 00 d0           adrp     x28, #0x211a000
0x00ec446c: bd 92 00 d0           adrp     x29, #0x211a000
0x00ec4470: ba 92 00 d0           adrp     x26, #0x211a000
0x00ec4474: 7b 13 46 f9           ldr      x27, [x27, #0xc20]
0x00ec4478: 9c f3 45 f9           ldr      x28, [x28, #0xbe0]
0x00ec447c: bd f7 45 f9           ldr      x29, [x29, #0xbe8]
0x00ec4480: 5a 23 46 f9           ldr      x26, [x26, #0xc40]
0x00ec4484: e0 03 14 aa           mov      x0, x20
0x00ec4488: e1 03 15 aa           mov      x1, x21
0x00ec448c: e2 03 1f aa           mov      x2, xzr
0x00ec4490: b2 3c 3c 94           bl       #0x1dd3758
0x00ec4494: 20 03 40 f9           ldr      x0, [x25]
0x00ec4498: e1 03 1f aa           mov      x1, xzr
0x00ec449c: f6 0e 3c 94           bl       #0x1dc8074
0x00ec44a0: 68 03 40 f9           ldr      x8, [x27]
0x00ec44a4: f4 03 00 aa           mov      x20, x0
0x00ec44a8: e0 03 08 aa           mov      x0, x8
0x00ec44ac: 1d 66 fd 97           bl       #0xe1dd20
0x00ec44b0: 82 03 40 f9           ldr      x2, [x28]
0x00ec44b4: e1 03 13 aa           mov      x1, x19
0x00ec44b8: e3 03 1f aa           mov      x3, xzr
0x00ec44bc: f5 03 00 aa           mov      x21, x0
0x00ec44c0: 9f 01 1b 94           bl       #0x1584b3c
0x00ec44c4: 41 00 80 52           mov      w1, #2
0x00ec44c8: e0 03 14 aa           mov      x0, x20
0x00ec44cc: e2 03 15 aa           mov      x2, x21
0x00ec44d0: e3 03 1f aa           mov      x3, xzr
0x00ec44d4: 50 53 00 94           bl       #0xed9214
0x00ec44d8: 20 03 40 f9           ldr      x0, [x25]
0x00ec44dc: e1 03 1f aa           mov      x1, xzr
0x00ec44e0: e5 0e 3c 94           bl       #0x1dc8074
0x00ec44e4: 68 03 40 f9           ldr      x8, [x27]
0x00ec44e8: f4 03 00 aa           mov      x20, x0
0x00ec44ec: e0 03 08 aa           mov      x0, x8
0x00ec44f0: 0c 66 fd 97           bl       #0xe1dd20
0x00ec44f4: a2 03 40 f9           ldr      x2, [x29]
0x00ec44f8: e1 03 13 aa           mov      x1, x19
0x00ec44fc: e3 03 1f aa           mov      x3, xzr
0x00ec4500: f5 03 00 aa           mov      x21, x0
0x00ec4504: 8e 01 1b 94           bl       #0x1584b3c
0x00ec4508: 61 00 80 52           mov      w1, #3
0x00ec450c: e0 03 14 aa           mov      x0, x20
0x00ec4510: e2 03 15 aa           mov      x2, x21
0x00ec4514: e3 03 1f aa           mov      x3, xzr
0x00ec4518: 3f 53 00 94           bl       #0xed9214
0x00ec451c: 40 03 40 f9           ldr      x0, [x26]
0x00ec4520: e1 03 1f aa           mov      x1, xzr
0x00ec4524: d4 0e 3c 94           bl       #0x1dc8074
0x00ec4528: a0 50 00 b4           cbz      x0, #0xec4f3c
0x00ec452c: 01 03 40 f9           ldr      x1, [x24]
0x00ec4530: 1c 4b 02 94           bl       #0xf571a0
0x00ec4534: 40 50 00 b4           cbz      x0, #0xec4f3c
0x00ec4538: 14 80 40 f9           ldr      x20, [x0, #0x100]
0x00ec453c: e0 02 40 f9           ldr      x0, [x23]
0x00ec4540: b5 92 00 d0           adrp     x21, #0x211a000
0x00ec4544: b5 fa 45 f9           ldr      x21, [x21, #0xbf0]
0x00ec4548: f6 65 fd 97           bl       #0xe1dd20
0x00ec454c: a2 02 40 f9           ldr      x2, [x21]
0x00ec4550: e1 03 13 aa           mov      x1, x19
0x00ec4554: e3 03 1f aa           mov      x3, xzr
0x00ec4558: f5 03 00 aa           mov      x21, x0
0x00ec455c: 56 3c 3c 94           bl       #0x1dd36b4
0x00ec4560: f4 4e 00 b4           cbz      x20, #0xec4f3c
0x00ec4564: b9 92 00 d0           adrp     x25, #0x211a000
0x00ec4568: 39 6f 46 f9           ldr      x25, [x25, #0xcd8]
0x00ec456c: e0 03 14 aa           mov      x0, x20
0x00ec4570: e1 03 15 aa           mov      x1, x21
0x00ec4574: e2 03 1f aa           mov      x2, xzr
0x00ec4578: 78 3c 3c 94           bl       #0x1dd3758
0x00ec457c: 20 03 40 f9           ldr      x0, [x25]
0x00ec4580: e1 03 1f aa           mov      x1, xzr
0x00ec4584: bc 0e 3c 94           bl       #0x1dc8074
0x00ec4588: a0 4d 00 b4           cbz      x0, #0xec4f3c
0x00ec458c: 01 03 40 f9           ldr      x1, [x24]
0x00ec4590: 04 4b 02 94           bl       #0xf571a0
0x00ec4594: 40 4d 00 b4           cbz      x0, #0xec4f3c
0x00ec4598: 14 80 40 f9           ldr      x20, [x0, #0x100]
0x00ec459c: e0 02 40 f9           ldr      x0, [x23]
0x00ec45a0: b5 92 00 d0           adrp     x21, #0x211a000
0x00ec45a4: b5 fe 45 f9           ldr      x21, [x21, #0xbf8]
0x00ec45a8: de 65 fd 97           bl       #0xe1dd20
0x00ec45ac: a2 02 40 f9           ldr      x2, [x21]
0x00ec45b0: e1 03 13 aa           mov      x1, x19
0x00ec45b4: e3 03 1f aa           mov      x3, xzr
0x00ec45b8: f5 03 00 aa           mov      x21, x0
0x00ec45bc: 3e 3c 3c 94           bl       #0x1dd36b4
0x00ec45c0: f4 4b 00 b4           cbz      x20, #0xec4f3c
0x00ec45c4: b9 92 00 d0           adrp     x25, #0x211a000
0x00ec45c8: 39 63 46 f9           ldr      x25, [x25, #0xcc0]
0x00ec45cc: e0 03 14 aa           mov      x0, x20
0x00ec45d0: e1 03 15 aa           mov      x1, x21
0x00ec45d4: e2 03 1f aa           mov      x2, xzr
0x00ec45d8: 60 3c 3c 94           bl       #0x1dd3758
0x00ec45dc: 20 03 40 f9           ldr      x0, [x25]
0x00ec45e0: e1 03 1f aa           mov      x1, xzr
0x00ec45e4: a4 0e 3c 94           bl       #0x1dc8074
0x00ec45e8: a0 4a 00 b4           cbz      x0, #0xec4f3c
0x00ec45ec: 01 03 40 f9           ldr      x1, [x24]
0x00ec45f0: ec 4a 02 94           bl       #0xf571a0
0x00ec45f4: 40 4a 00 b4           cbz      x0, #0xec4f3c
0x00ec45f8: 14 80 40 f9           ldr      x20, [x0, #0x100]
0x00ec45fc: e0 02 40 f9           ldr      x0, [x23]
0x00ec4600: b5 92 00 d0           adrp     x21, #0x211a000
0x00ec4604: b5 02 46 f9           ldr      x21, [x21, #0xc00]
0x00ec4608: c6 65 fd 97           bl       #0xe1dd20
0x00ec460c: a2 02 40 f9           ldr      x2, [x21]
0x00ec4610: e1 03 13 aa           mov      x1, x19
0x00ec4614: e3 03 1f aa           mov      x3, xzr
0x00ec4618: f5 03 00 aa           mov      x21, x0
0x00ec461c: 26 3c 3c 94           bl       #0x1dd36b4
0x00ec4620: f4 48 00 b4           cbz      x20, #0xec4f3c
0x00ec4624: ba 92 00 d0           adrp     x26, #0x211a000
0x00ec4628: 5a 3f 46 f9           ldr      x26, [x26, #0xc78]
0x00ec462c: e0 03 14 aa           mov      x0, x20
0x00ec4630: e1 03 15 aa           mov      x1, x21
0x00ec4634: e2 03 1f aa           mov      x2, xzr
0x00ec4638: 48 3c 3c 94           bl       #0x1dd3758
0x00ec463c: 40 03 40 f9           ldr      x0, [x26]
0x00ec4640: e1 03 1f aa           mov      x1, xzr
0x00ec4644: 8c 0e 3c 94           bl       #0x1dc8074
0x00ec4648: a0 47 00 b4           cbz      x0, #0xec4f3c
0x00ec464c: 01 03 40 f9           ldr      x1, [x24]
0x00ec4650: d4 4a 02 94           bl       #0xf571a0
0x00ec4654: 40 47 00 b4           cbz      x0, #0xec4f3c
0x00ec4658: 14 80 40 f9           ldr      x20, [x0, #0x100]
0x00ec465c: e0 02 40 f9           ldr      x0, [x23]
0x00ec4660: b5 92 00 d0           adrp     x21, #0x211a000
0x00ec4664: b5 06 46 f9           ldr      x21, [x21, #0xc08]
0x00ec4668: ae 65 fd 97           bl       #0xe1dd20
0x00ec466c: a2 02 40 f9           ldr      x2, [x21]
0x00ec4670: e1 03 13 aa           mov      x1, x19
0x00ec4674: e3 03 1f aa           mov      x3, xzr
0x00ec4678: f5 03 00 aa           mov      x21, x0
0x00ec467c: 0e 3c 3c 94           bl       #0x1dd36b4
0x00ec4680: f4 45 00 b4           cbz      x20, #0xec4f3c
0x00ec4684: bb 92 00 d0           adrp     x27, #0x211a000
0x00ec4688: 7b 87 46 f9           ldr      x27, [x27, #0xd08]
0x00ec468c: e0 03 14 aa           mov      x0, x20
0x00ec4690: e1 03 15 aa           mov      x1, x21
0x00ec4694: e2 03 1f aa           mov      x2, xzr
0x00ec4698: 30 3c 3c 94           bl       #0x1dd3758
0x00ec469c: 60 03 40 f9           ldr      x0, [x27]
0x00ec46a0: e1 03 1f aa           mov      x1, xzr
0x00ec46a4: 74 0e 3c 94           bl       #0x1dc8074
0x00ec46a8: a0 44 00 b4           cbz      x0, #0xec4f3c
0x00ec46ac: 01 03 40 f9           ldr      x1, [x24]
0x00ec46b0: bc 4a 02 94           bl       #0xf571a0
0x00ec46b4: 40 44 00 b4           cbz      x0, #0xec4f3c
0x00ec46b8: 14 80 40 f9           ldr      x20, [x0, #0x100]
0x00ec46bc: e0 02 40 f9           ldr      x0, [x23]
0x00ec46c0: b5 92 00 d0           adrp     x21, #0x211a000
0x00ec46c4: b5 0a 46 f9           ldr      x21, [x21, #0xc10]
0x00ec46c8: 96 65 fd 97           bl       #0xe1dd20
0x00ec46cc: a2 02 40 f9           ldr      x2, [x21]
0x00ec46d0: e1 03 13 aa           mov      x1, x19
0x00ec46d4: e3 03 1f aa           mov      x3, xzr
0x00ec46d8: f5 03 00 aa           mov      x21, x0
0x00ec46dc: f6 3b 3c 94           bl       #0x1dd36b4
0x00ec46e0: f4 42 00 b4           cbz      x20, #0xec4f3c
0x00ec46e4: bb 92 00 d0           adrp     x27, #0x211a000
0x00ec46e8: 7b 7b 46 f9           ldr      x27, [x27, #0xcf0]
0x00ec46ec: e0 03 14 aa           mov      x0, x20
0x00ec46f0: e1 03 15 aa           mov      x1, x21
0x00ec46f4: e2 03 1f aa           mov      x2, xzr
0x00ec46f8: 18 3c 3c 94           bl       #0x1dd3758
0x00ec46fc: 60 03 40 f9           ldr      x0, [x27]
0x00ec4700: e1 03 1f aa           mov      x1, xzr
0x00ec4704: 5c 0e 3c 94           bl       #0x1dc8074
0x00ec4708: a0 41 00 b4           cbz      x0, #0xec4f3c
0x00ec470c: 01 03 40 f9           ldr      x1, [x24]
0x00ec4710: a4 4a 02 94           bl       #0xf571a0
0x00ec4714: 40 41 00 b4           cbz      x0, #0xec4f3c
0x00ec4718: 14 80 40 f9           ldr      x20, [x0, #0x100]
0x00ec471c: e0 02 40 f9           ldr      x0, [x23]
0x00ec4720: b5 92 00 d0           adrp     x21, #0x211a000
0x00ec4724: b5 0e 46 f9           ldr      x21, [x21, #0xc18]
0x00ec4728: 7e 65 fd 97           bl       #0xe1dd20
0x00ec472c: a2 02 40 f9           ldr      x2, [x21]
0x00ec4730: e1 03 13 aa           mov      x1, x19
0x00ec4734: e3 03 1f aa           mov      x3, xzr
0x00ec4738: f5 03 00 aa           mov      x21, x0
0x00ec473c: de 3b 3c 94           bl       #0x1dd36b4
0x00ec4740: f4 3f 00 b4           cbz      x20, #0xec4f3c
0x00ec4744: bb 92 00 d0           adrp     x27, #0x211a000
0x00ec4748: 7b 17 46 f9           ldr      x27, [x27, #0xc28]
0x00ec474c: e0 03 14 aa           mov      x0, x20
0x00ec4750: e1 03 15 aa           mov      x1, x21
0x00ec4754: e2 03 1f aa           mov      x2, xzr
0x00ec4758: 00 3c 3c 94           bl       #0x1dd3758
0x00ec475c: 60 03 40 f9           ldr      x0, [x27]
0x00ec4760: e1 03 1f aa           mov      x1, xzr
0x00ec4764: 44 0e 3c 94           bl       #0x1dc8074
0x00ec4768: a0 3e 00 b4           cbz      x0, #0xec4f3c
0x00ec476c: 01 03 40 f9           ldr      x1, [x24]
0x00ec4770: 8c 4a 02 94           bl       #0xf571a0
0x00ec4774: 40 3e 00 b4           cbz      x0, #0xec4f3c
0x00ec4778: 14 80 40 f9           ldr      x20, [x0, #0x100]
0x00ec477c: e0 02 40 f9           ldr      x0, [x23]
0x00ec4780: b5 92 00 d0           adrp     x21, #0x211a000
0x00ec4784: b5 ca 45 f9           ldr      x21, [x21, #0xb90]
0x00ec4788: 66 65 fd 97           bl       #0xe1dd20
0x00ec478c: a2 02 40 f9           ldr      x2, [x21]
0x00ec4790: e1 03 13 aa           mov      x1, x19
0x00ec4794: e3 03 1f aa           mov      x3, xzr
0x00ec4798: f5 03 00 aa           mov      x21, x0
0x00ec479c: c6 3b 3c 94           bl       #0x1dd36b4
0x00ec47a0: f4 3c 00 b4           cbz      x20, #0xec4f3c
0x00ec47a4: bb 92 00 d0           adrp     x27, #0x211a000
0x00ec47a8: 7b 8b 46 f9           ldr      x27, [x27, #0xd10]
0x00ec47ac: e0 03 14 aa           mov      x0, x20
0x00ec47b0: e1 03 15 aa           mov      x1, x21
0x00ec47b4: e2 03 1f aa           mov      x2, xzr
0x00ec47b8: e8 3b 3c 94           bl       #0x1dd3758
0x00ec47bc: 60 03 40 f9           ldr      x0, [x27]
0x00ec47c0: e1 03 1f aa           mov      x1, xzr
0x00ec47c4: 2c 0e 3c 94           bl       #0x1dc8074
0x00ec47c8: a0 3b 00 b4           cbz      x0, #0xec4f3c
0x00ec47cc: 01 03 40 f9           ldr      x1, [x24]
0x00ec47d0: 74 4a 02 94           bl       #0xf571a0
0x00ec47d4: 40 3b 00 b4           cbz      x0, #0xec4f3c
0x00ec47d8: 14 80 40 f9           ldr      x20, [x0, #0x100]
0x00ec47dc: e0 02 40 f9           ldr      x0, [x23]
0x00ec47e0: b5 92 00 d0           adrp     x21, #0x211a000
0x00ec47e4: b5 ce 45 f9           ldr      x21, [x21, #0xb98]
0x00ec47e8: 4e 65 fd 97           bl       #0xe1dd20
0x00ec47ec: a2 02 40 f9           ldr      x2, [x21]
0x00ec47f0: e1 03 13 aa           mov      x1, x19
0x00ec47f4: e3 03 1f aa           mov      x3, xzr
0x00ec47f8: f5 03 00 aa           mov      x21, x0
0x00ec47fc: ae 3b 3c 94           bl       #0x1dd36b4
0x00ec4800: f4 39 00 b4           cbz      x20, #0xec4f3c
0x00ec4804: bb 92 00 d0           adrp     x27, #0x211a000
0x00ec4808: 7b 43 46 f9           ldr      x27, [x27, #0xc80]
0x00ec480c: e0 03 14 aa           mov      x0, x20
0x00ec4810: e1 03 15 aa           mov      x1, x21
0x00ec4814: e2 03 1f aa           mov      x2, xzr
0x00ec4818: d0 3b 3c 94           bl       #0x1dd3758
0x00ec481c: 60 03 40 f9           ldr      x0, [x27]
0x00ec4820: e1 03 1f aa           mov      x1, xzr
0x00ec4824: 14 0e 3c 94           bl       #0x1dc8074
0x00ec4828: a0 38 00 b4           cbz      x0, #0xec4f3c
0x00ec482c: 01 03 40 f9           ldr      x1, [x24]
0x00ec4830: 5c 4a 02 94           bl       #0xf571a0
0x00ec4834: 40 38 00 b4           cbz      x0, #0xec4f3c
0x00ec4838: 14 80 40 f9           ldr      x20, [x0, #0x100]
0x00ec483c: e0 02 40 f9           ldr      x0, [x23]
0x00ec4840: b5 92 00 d0           adrp     x21, #0x211a000
0x00ec4844: b5 d2 45 f9           ldr      x21, [x21, #0xba0]
0x00ec4848: 36 65 fd 97           bl       #0xe1dd20
0x00ec484c: a2 02 40 f9           ldr      x2, [x21]
0x00ec4850: e1 03 13 aa           mov      x1, x19
0x00ec4854: e3 03 1f aa           mov      x3, xzr
0x00ec4858: f5 03 00 aa           mov      x21, x0
0x00ec485c: 96 3b 3c 94           bl       #0x1dd36b4
0x00ec4860: f4 36 00 b4           cbz      x20, #0xec4f3c
0x00ec4864: bb 92 00 d0           adrp     x27, #0x211a000
0x00ec4868: 7b 4b 46 f9           ldr      x27, [x27, #0xc90]
0x00ec486c: e0 03 14 aa           mov      x0, x20
0x00ec4870: e1 03 15 aa           mov      x1, x21
0x00ec4874: e2 03 1f aa           mov      x2, xzr
0x00ec4878: b8 3b 3c 94           bl       #0x1dd3758
0x00ec487c: 60 03 40 f9           ldr      x0, [x27]
0x00ec4880: e1 03 1f aa           mov      x1, xzr
0x00ec4884: fc 0d 3c 94           bl       #0x1dc8074
0x00ec4888: a0 35 00 b4           cbz      x0, #0xec4f3c
0x00ec488c: 01 03 40 f9           ldr      x1, [x24]
0x00ec4890: 44 4a 02 94           bl       #0xf571a0
0x00ec4894: 40 35 00 b4           cbz      x0, #0xec4f3c
0x00ec4898: 14 80 40 f9           ldr      x20, [x0, #0x100]
0x00ec489c: e0 02 40 f9           ldr      x0, [x23]
0x00ec48a0: b5 92 00 d0           adrp     x21, #0x211a000
0x00ec48a4: b5 d6 45 f9           ldr      x21, [x21, #0xba8]
0x00ec48a8: 1e 65 fd 97           bl       #0xe1dd20
0x00ec48ac: a2 02 40 f9           ldr      x2, [x21]
0x00ec48b0: e1 03 13 aa           mov      x1, x19
0x00ec48b4: e3 03 1f aa           mov      x3, xzr
0x00ec48b8: f5 03 00 aa           mov      x21, x0
0x00ec48bc: 7e 3b 3c 94           bl       #0x1dd36b4
0x00ec48c0: f4 33 00 b4           cbz      x20, #0xec4f3c
0x00ec48c4: bb 92 00 d0           adrp     x27, #0x211a000
0x00ec48c8: 7b 67 46 f9           ldr      x27, [x27, #0xcc8]
0x00ec48cc: e0 03 14 aa           mov      x0, x20
0x00ec48d0: e1 03 15 aa           mov      x1, x21
0x00ec48d4: e2 03 1f aa           mov      x2, xzr
0x00ec48d8: a0 3b 3c 94           bl       #0x1dd3758
0x00ec48dc: 60 03 40 f9           ldr      x0, [x27]
0x00ec48e0: e1 03 1f aa           mov      x1, xzr
0x00ec48e4: e4 0d 3c 94           bl       #0x1dc8074
0x00ec48e8: a0 32 00 b4           cbz      x0, #0xec4f3c
0x00ec48ec: 01 03 40 f9           ldr      x1, [x24]
0x00ec48f0: 2c 4a 02 94           bl       #0xf571a0
0x00ec48f4: 40 32 00 b4           cbz      x0, #0xec4f3c
0x00ec48f8: 14 80 40 f9           ldr      x20, [x0, #0x100]
0x00ec48fc: e0 02 40 f9           ldr      x0, [x23]
0x00ec4900: b5 92 00 d0           adrp     x21, #0x211a000
0x00ec4904: b5 da 45 f9           ldr      x21, [x21, #0xbb0]
0x00ec4908: 06 65 fd 97           bl       #0xe1dd20
0x00ec490c: a2 02 40 f9           ldr      x2, [x21]
0x00ec4910: e1 03 13 aa           mov      x1, x19
0x00ec4914: e3 03 1f aa           mov      x3, xzr
0x00ec4918: f5 03 00 aa           mov      x21, x0
0x00ec491c: 66 3b 3c 94           bl       #0x1dd36b4
0x00ec4920: f4 30 00 b4           cbz      x20, #0xec4f3c
0x00ec4924: bb 92 00 d0           adrp     x27, #0x211a000
0x00ec4928: 7b 1f 46 f9           ldr      x27, [x27, #0xc38]
0x00ec492c: e0 03 14 aa           mov      x0, x20
0x00ec4930: e1 03 15 aa           mov      x1, x21
0x00ec4934: e2 03 1f aa           mov      x2, xzr
0x00ec4938: 88 3b 3c 94           bl       #0x1dd3758
0x00ec493c: 60 03 40 f9           ldr      x0, [x27]
0x00ec4940: e1 03 1f aa           mov      x1, xzr
0x00ec4944: cc 0d 3c 94           bl       #0x1dc8074
0x00ec4948: a0 2f 00 b4           cbz      x0, #0xec4f3c
0x00ec494c: 01 03 40 f9           ldr      x1, [x24]
0x00ec4950: 14 4a 02 94           bl       #0xf571a0
0x00ec4954: 40 2f 00 b4           cbz      x0, #0xec4f3c
0x00ec4958: 14 80 40 f9           ldr      x20, [x0, #0x100]
0x00ec495c: e0 02 40 f9           ldr      x0, [x23]
0x00ec4960: b5 92 00 d0           adrp     x21, #0x211a000
0x00ec4964: b5 de 45 f9           ldr      x21, [x21, #0xbb8]
0x00ec4968: ee 64 fd 97           bl       #0xe1dd20
0x00ec496c: a2 02 40 f9           ldr      x2, [x21]
0x00ec4970: e1 03 13 aa           mov      x1, x19
0x00ec4974: e3 03 1f aa           mov      x3, xzr
0x00ec4978: f5 03 00 aa           mov      x21, x0
0x00ec497c: 4e 3b 3c 94           bl       #0x1dd36b4
0x00ec4980: f4 2d 00 b4           cbz      x20, #0xec4f3c
0x00ec4984: bb 92 00 d0           adrp     x27, #0x211a000
0x00ec4988: 7b 8f 46 f9           ldr      x27, [x27, #0xd18]
0x00ec498c: e0 03 14 aa           mov      x0, x20
0x00ec4990: e1 03 15 aa           mov      x1, x21
0x00ec4994: e2 03 1f aa           mov      x2, xzr
0x00ec4998: 70 3b 3c 94           bl       #0x1dd3758
0x00ec499c: 60 03 40 f9           ldr      x0, [x27]
0x00ec49a0: e1 03 1f aa           mov      x1, xzr
0x00ec49a4: b4 0d 3c 94           bl       #0x1dc8074
0x00ec49a8: a0 2c 00 b4           cbz      x0, #0xec4f3c
0x00ec49ac: 01 03 40 f9           ldr      x1, [x24]
0x00ec49b0: fc 49 02 94           bl       #0xf571a0
0x00ec49b4: 40 2c 00 b4           cbz      x0, #0xec4f3c
0x00ec49b8: 14 80 40 f9           ldr      x20, [x0, #0x100]
0x00ec49bc: e0 02 40 f9           ldr      x0, [x23]
0x00ec49c0: b5 92 00 d0           adrp     x21, #0x211a000
0x00ec49c4: b5 e2 45 f9           ldr      x21, [x21, #0xbc0]
0x00ec49c8: d6 64 fd 97           bl       #0xe1dd20
0x00ec49cc: a2 02 40 f9           ldr      x2, [x21]
0x00ec49d0: e1 03 13 aa           mov      x1, x19
0x00ec49d4: e3 03 1f aa           mov      x3, xzr
0x00ec49d8: f5 03 00 aa           mov      x21, x0
0x00ec49dc: 36 3b 3c 94           bl       #0x1dd36b4
0x00ec49e0: f4 2a 00 b4           cbz      x20, #0xec4f3c
0x00ec49e4: bb 92 00 d0           adrp     x27, #0x211a000
0x00ec49e8: 7b 3b 46 f9           ldr      x27, [x27, #0xc70]
0x00ec49ec: e0 03 14 aa           mov      x0, x20
0x00ec49f0: e1 03 15 aa           mov      x1, x21
0x00ec49f4: e2 03 1f aa           mov      x2, xzr
0x00ec49f8: 58 3b 3c 94           bl       #0x1dd3758
0x00ec49fc: 60 03 40 f9           ldr      x0, [x27]
0x00ec4a00: e1 03 1f aa           mov      x1, xzr
0x00ec4a04: 9c 0d 3c 94           bl       #0x1dc8074
0x00ec4a08: a0 29 00 b4           cbz      x0, #0xec4f3c
0x00ec4a0c: 01 03 40 f9           ldr      x1, [x24]
0x00ec4a10: e4 49 02 94           bl       #0xf571a0
0x00ec4a14: 40 29 00 b4           cbz      x0, #0xec4f3c
0x00ec4a18: 14 80 40 f9           ldr      x20, [x0, #0x100]
0x00ec4a1c: e0 02 40 f9           ldr      x0, [x23]
0x00ec4a20: b5 92 00 d0           adrp     x21, #0x211a000
0x00ec4a24: b5 e6 45 f9           ldr      x21, [x21, #0xbc8]
0x00ec4a28: be 64 fd 97           bl       #0xe1dd20
0x00ec4a2c: a2 02 40 f9           ldr      x2, [x21]
0x00ec4a30: e1 03 13 aa           mov      x1, x19
0x00ec4a34: e3 03 1f aa           mov      x3, xzr
0x00ec4a38: f5 03 00 aa           mov      x21, x0
0x00ec4a3c: 1e 3b 3c 94           bl       #0x1dd36b4
0x00ec4a40: f4 27 00 b4           cbz      x20, #0xec4f3c
0x00ec4a44: bb 92 00 d0           adrp     x27, #0x211a000
0x00ec4a48: 7b 5b 46 f9           ldr      x27, [x27, #0xcb0]
0x00ec4a4c: e0 03 14 aa           mov      x0, x20
0x00ec4a50: e1 03 15 aa           mov      x1, x21
0x00ec4a54: e2 03 1f aa           mov      x2, xzr
0x00ec4a58: 40 3b 3c 94           bl       #0x1dd3758
0x00ec4a5c: 60 03 40 f9           ldr      x0, [x27]
0x00ec4a60: e1 03 1f aa           mov      x1, xzr
0x00ec4a64: 84 0d 3c 94           bl       #0x1dc8074
0x00ec4a68: a0 26 00 b4           cbz      x0, #0xec4f3c
0x00ec4a6c: 01 03 40 f9           ldr      x1, [x24]
0x00ec4a70: cc 49 02 94           bl       #0xf571a0
0x00ec4a74: 40 26 00 b4           cbz      x0, #0xec4f3c
0x00ec4a78: 14 80 40 f9           ldr      x20, [x0, #0x100]
0x00ec4a7c: e0 02 40 f9           ldr      x0, [x23]
0x00ec4a80: b5 92 00 d0           adrp     x21, #0x211a000
0x00ec4a84: b5 ea 45 f9           ldr      x21, [x21, #0xbd0]
0x00ec4a88: a6 64 fd 97           bl       #0xe1dd20
0x00ec4a8c: a2 02 40 f9           ldr      x2, [x21]
0x00ec4a90: e1 03 13 aa           mov      x1, x19
0x00ec4a94: e3 03 1f aa           mov      x3, xzr
0x00ec4a98: f5 03 00 aa           mov      x21, x0
0x00ec4a9c: 06 3b 3c 94           bl       #0x1dd36b4
0x00ec4aa0: f4 24 00 b4           cbz      x20, #0xec4f3c
0x00ec4aa4: b7 92 00 d0           adrp     x23, #0x211a000
0x00ec4aa8: f7 46 46 f9           ldr      x23, [x23, #0xc88]
0x00ec4aac: e0 03 14 aa           mov      x0, x20
0x00ec4ab0: e1 03 15 aa           mov      x1, x21
0x00ec4ab4: e2 03 1f aa           mov      x2, xzr
0x00ec4ab8: 28 3b 3c 94           bl       #0x1dd3758
0x00ec4abc: e0 02 40 f9           ldr      x0, [x23]
0x00ec4ac0: e1 03 1f aa           mov      x1, xzr
0x00ec4ac4: 6c 0d 3c 94           bl       #0x1dc8074
0x00ec4ac8: a0 23 00 b4           cbz      x0, #0xec4f3c
0x00ec4acc: b4 92 00 d0           adrp     x20, #0x211a000
0x00ec4ad0: 94 66 42 f9           ldr      x20, [x20, #0x4c8]
0x00ec4ad4: b5 92 00 d0           adrp     x21, #0x211a000
0x00ec4ad8: 81 02 40 f9           ldr      x1, [x20]
0x00ec4adc: b5 1a 46 f9           ldr      x21, [x21, #0xc30]
0x00ec4ae0: b0 49 02 94           bl       #0xf571a0
0x00ec4ae4: 60 02 03 f9           str      x0, [x19, #0x600]
0x00ec4ae8: c0 02 40 f9           ldr      x0, [x22]
0x00ec4aec: e1 03 1f aa           mov      x1, xzr
0x00ec4af0: 61 0d 3c 94           bl       #0x1dc8074
0x00ec4af4: 60 06 03 f9           str      x0, [x19, #0x608]
0x00ec4af8: 20 03 40 f9           ldr      x0, [x25]
0x00ec4afc: e1 03 1f aa           mov      x1, xzr
0x00ec4b00: 5d 0d 3c 94           bl       #0x1dc8074
0x00ec4b04: 60 0a 03 f9           str      x0, [x19, #0x610]
0x00ec4b08: 40 03 40 f9           ldr      x0, [x26]
0x00ec4b0c: e1 03 1f aa           mov      x1, xzr
0x00ec4b10: 59 0d 3c 94           bl       #0x1dc8074
0x00ec4b14: 60 0e 03 f9           str      x0, [x19, #0x618]
0x00ec4b18: a0 02 40 f9           ldr      x0, [x21]
0x00ec4b1c: e1 03 1f aa           mov      x1, xzr
0x00ec4b20: 55 0d 3c 94           bl       #0x1dc8074
0x00ec4b24: c0 20 00 b4           cbz      x0, #0xec4f3c
0x00ec4b28: b5 92 00 d0           adrp     x21, #0x211a000
0x00ec4b2c: b5 06 41 f9           ldr      x21, [x21, #0x208]
0x00ec4b30: b6 92 00 d0           adrp     x22, #0x211a000
0x00ec4b34: a1 02 40 f9           ldr      x1, [x21]
0x00ec4b38: d6 52 46 f9           ldr      x22, [x22, #0xca0]
0x00ec4b3c: 99 49 02 94           bl       #0xf571a0
0x00ec4b40: 60 12 03 f9           str      x0, [x19, #0x620]
0x00ec4b44: c0 02 40 f9           ldr      x0, [x22]
0x00ec4b48: e1 03 1f aa           mov      x1, xzr
0x00ec4b4c: 4a 0d 3c 94           bl       #0x1dc8074
0x00ec4b50: 60 1f 00 b4           cbz      x0, #0xec4f3c
0x00ec4b54: a1 02 40 f9           ldr      x1, [x21]
0x00ec4b58: b6 92 00 d0           adrp     x22, #0x211a000
0x00ec4b5c: d6 2a 46 f9           ldr      x22, [x22, #0xc50]
0x00ec4b60: 90 49 02 94           bl       #0xf571a0
0x00ec4b64: 60 16 03 f9           str      x0, [x19, #0x628]
0x00ec4b68: c0 02 40 f9           ldr      x0, [x22]
0x00ec4b6c: e1 03 1f aa           mov      x1, xzr
0x00ec4b70: 41 0d 3c 94           bl       #0x1dc8074
0x00ec4b74: 40 1e 00 b4           cbz      x0, #0xec4f3c
0x00ec4b78: a8 92 00 d0           adrp     x8, #0x211a000
0x00ec4b7c: 08 fd 41 f9           ldr      x8, [x8, #0x3f8]
0x00ec4b80: 01 01 40 f9           ldr      x1, [x8]
0x00ec4b84: 87 49 02 94           bl       #0xf571a0
0x00ec4b88: 60 1a 03 f9           str      x0, [x19, #0x630]
0x00ec4b8c: c0 02 40 f9           ldr      x0, [x22]
0x00ec4b90: e1 03 1f aa           mov      x1, xzr
0x00ec4b94: 38 0d 3c 94           bl       #0x1dc8074
0x00ec4b98: 20 1d 00 b4           cbz      x0, #0xec4f3c
0x00ec4b9c: 81 02 40 f9           ldr      x1, [x20]
0x00ec4ba0: b4 92 00 d0           adrp     x20, #0x211a000
0x00ec4ba4: 94 5e 46 f9           ldr      x20, [x20, #0xcb8]
0x00ec4ba8: 7e 49 02 94           bl       #0xf571a0
0x00ec4bac: 60 1e 03 f9           str      x0, [x19, #0x638]
0x00ec4bb0: 80 02 40 f9           ldr      x0, [x20]
0x00ec4bb4: e1 03 1f aa           mov      x1, xzr
0x00ec4bb8: 2f 0d 3c 94           bl       #0x1dc8074
0x00ec4bbc: 00 1c 00 b4           cbz      x0, #0xec4f3c
0x00ec4bc0: a1 02 40 f9           ldr      x1, [x21]
0x00ec4bc4: b4 92 00 d0           adrp     x20, #0x211a000
0x00ec4bc8: b6 92 00 d0           adrp     x22, #0x211a000
0x00ec4bcc: 94 56 46 f9           ldr      x20, [x20, #0xca8]
0x00ec4bd0: d6 6a 46 f9           ldr      x22, [x22, #0xcd0]
0x00ec4bd4: 73 49 02 94           bl       #0xf571a0
0x00ec4bd8: 60 22 03 f9           str      x0, [x19, #0x640]
0x00ec4bdc: 80 02 40 f9           ldr      x0, [x20]
0x00ec4be0: e1 03 1f aa           mov      x1, xzr
0x00ec4be4: 24 0d 3c 94           bl       #0x1dc8074
0x00ec4be8: 60 26 03 f9           str      x0, [x19, #0x648]
0x00ec4bec: c0 02 40 f9           ldr      x0, [x22]
0x00ec4bf0: e1 03 1f aa           mov      x1, xzr
0x00ec4bf4: 20 0d 3c 94           bl       #0x1dc8074
0x00ec4bf8: 68 02 43 f9           ldr      x8, [x19, #0x600]
0x00ec4bfc: 60 2a 03 f9           str      x0, [x19, #0x650]
0x00ec4c00: e8 19 00 b4           cbz      x8, #0xec4f3c
0x00ec4c04: e0 03 08 aa           mov      x0, x8
0x00ec4c08: e1 03 1f aa           mov      x1, xzr
0x00ec4c0c: a2 02 3c 94           bl       #0x1dc5694
0x00ec4c10: 60 19 00 b4           cbz      x0, #0xec4f3c
0x00ec4c14: e1 03 1f 2a           mov      w1, wzr
0x00ec4c18: e2 03 1f aa           mov      x2, xzr
0x00ec4c1c: 36 0c 3c 94           bl       #0x1dc7cf4
0x00ec4c20: 60 12 43 f9           ldr      x0, [x19, #0x620]
0x00ec4c24: c0 18 00 b4           cbz      x0, #0xec4f3c
0x00ec4c28: e1 03 1f aa           mov      x1, xzr
0x00ec4c2c: 9a 02 3c 94           bl       #0x1dc5694
0x00ec4c30: 60 18 00 b4           cbz      x0, #0xec4f3c
0x00ec4c34: e1 03 1f 2a           mov      w1, wzr
0x00ec4c38: e2 03 1f aa           mov      x2, xzr
0x00ec4c3c: 2e 0c 3c 94           bl       #0x1dc7cf4
0x00ec4c40: 60 16 43 f9           ldr      x0, [x19, #0x628]
0x00ec4c44: c0 17 00 b4           cbz      x0, #0xec4f3c
0x00ec4c48: e1 03 1f aa           mov      x1, xzr
0x00ec4c4c: 92 02 3c 94           bl       #0x1dc5694
0x00ec4c50: 60 17 00 b4           cbz      x0, #0xec4f3c
0x00ec4c54: e1 03 1f 2a           mov      w1, wzr
0x00ec4c58: e2 03 1f aa           mov      x2, xzr
0x00ec4c5c: 26 0c 3c 94           bl       #0x1dc7cf4
0x00ec4c60: 60 26 43 f9           ldr      x0, [x19, #0x648]
0x00ec4c64: c0 16 00 b4           cbz      x0, #0xec4f3c
0x00ec4c68: 61 aa 52 39           ldrb     w1, [x19, #0x4aa]
0x00ec4c6c: e2 03 1f aa           mov      x2, xzr
0x00ec4c70: 21 0c 3c 94           bl       #0x1dc7cf4
0x00ec4c74: 60 2a 43 f9           ldr      x0, [x19, #0x650]
0x00ec4c78: 20 16 00 b4           cbz      x0, #0xec4f3c
0x00ec4c7c: 61 aa 52 39           ldrb     w1, [x19, #0x4aa]
0x00ec4c80: b4 92 00 d0           adrp     x20, #0x211a000
0x00ec4c84: b6 92 00 d0           adrp     x22, #0x211a000
0x00ec4c88: 94 72 46 f9           ldr      x20, [x20, #0xce0]
0x00ec4c8c: d6 7e 46 f9           ldr      x22, [x22, #0xcf8]
0x00ec4c90: e2 03 1f aa           mov      x2, xzr
0x00ec4c94: 18 0c 3c 94           bl       #0x1dc7cf4
0x00ec4c98: 80 02 40 f9           ldr      x0, [x20]
0x00ec4c9c: e1 03 1f aa           mov      x1, xzr
0x00ec4ca0: f5 0c 3c 94           bl       #0x1dc8074
0x00ec4ca4: 60 2e 03 f9           str      x0, [x19, #0x658]
0x00ec4ca8: c0 02 40 f9           ldr      x0, [x22]
0x00ec4cac: e1 03 1f aa           mov      x1, xzr
0x00ec4cb0: f1 0c 3c 94           bl       #0x1dc8074
0x00ec4cb4: 40 14 00 b4           cbz      x0, #0xec4f3c
0x00ec4cb8: e1 03 1f aa           mov      x1, xzr
0x00ec4cbc: df 0b 3c 94           bl       #0x1dc7c38
0x00ec4cc0: 60 32 03 f9           str      x0, [x19, #0x660]
0x00ec4cc4: c0 13 00 b4           cbz      x0, #0xec4f3c
0x00ec4cc8: a8 92 00 d0           adrp     x8, #0x211a000
0x00ec4ccc: 08 c1 45 f9           ldr      x8, [x8, #0xb80]
0x00ec4cd0: b6 92 00 d0           adrp     x22, #0x211a000
0x00ec4cd4: b9 92 00 d0           adrp     x25, #0x211a000
0x00ec4cd8: d6 26 46 f9           ldr      x22, [x22, #0xc48]
0x00ec4cdc: 39 77 46 f9           ldr      x25, [x25, #0xce8]
0x00ec4ce0: 01 01 40 f9           ldr      x1, [x8]
0x00ec4ce4: bb 92 00 d0           adrp     x27, #0x211a000
0x00ec4ce8: bc 92 00 d0           adrp     x28, #0x211a000
0x00ec4cec: 7b 33 46 f9           ldr      x27, [x27, #0xc60]
0x00ec4cf0: 9c e3 42 f9           ldr      x28, [x28, #0x5c0]
0x00ec4cf4: b5 af 01 94           bl       #0xf30bc8
0x00ec4cf8: fd 03 1f aa           mov      x29, xzr
0x00ec4cfc: 28 00 80 52           mov      w8, #1
0x00ec4d00: 60 36 03 f9           str      x0, [x19, #0x668]
0x00ec4d04: 78 46 43 f9           ldr      x24, [x19, #0x688]
0x00ec4d08: b7 07 00 11           add      w23, w29, #1
0x00ec4d0c: e0 33 00 91           add      x0, sp, #0xc
0x00ec4d10: e1 03 1f aa           mov      x1, xzr
0x00ec4d14: fa 03 08 2a           mov      w26, w8
0x00ec4d18: f7 0f 00 b9           str      w23, [sp, #0xc]
0x00ec4d1c: 98 dd 26 94           bl       #0x187c37c
0x00ec4d20: a9 92 00 d0           adrp     x9, #0x211a000
0x00ec4d24: c8 02 40 f9           ldr      x8, [x22]
0x00ec4d28: 29 81 46 f9           ldr      x9, [x9, #0xd00]
0x00ec4d2c: e1 03 00 aa           mov      x1, x0
0x00ec4d30: e3 03 1f aa           mov      x3, xzr
0x00ec4d34: e0 03 08 aa           mov      x0, x8
0x00ec4d38: 22 01 40 f9           ldr      x2, [x9]
0x00ec4d3c: 7f 94 21 94           bl       #0x1729f38
0x00ec4d40: e1 03 1f aa           mov      x1, xzr
0x00ec4d44: cc 0c 3c 94           bl       #0x1dc8074
0x00ec4d48: a0 0f 00 b4           cbz      x0, #0xec4f3c
0x00ec4d4c: e1 03 1f aa           mov      x1, xzr
0x00ec4d50: ba 0b 3c 94           bl       #0x1dc7c38
0x00ec4d54: 58 0f 00 b4           cbz      x24, #0xec4f3c
0x00ec4d58: f4 03 00 aa           mov      x20, x0
0x00ec4d5c: c0 00 00 b4           cbz      x0, #0xec4d74
0x00ec4d60: 08 03 40 f9           ldr      x8, [x24]
0x00ec4d64: e0 03 14 aa           mov      x0, x20
0x00ec4d68: 01 21 40 f9           ldr      x1, [x8, #0x40]
0x00ec4d6c: a9 63 fd 97           bl       #0xe1dc10
0x00ec4d70: a0 0e 00 b4           cbz      x0, #0xec4f44
0x00ec4d74: 08 1b 40 b9           ldr      w8, [x24, #0x18]
0x00ec4d78: bf 03 08 eb           cmp      x29, x8
0x00ec4d7c: 22 0e 00 54           b.hs     #0xec4f40
0x00ec4d80: 08 0f 1d 8b           add      x8, x24, x29, lsl #3
0x00ec4d84: 14 11 00 f9           str      x20, [x8, #0x20]
0x00ec4d88: 78 3a 43 f9           ldr      x24, [x19, #0x670]
0x00ec4d8c: e0 33 00 91           add      x0, sp, #0xc
0x00ec4d90: e1 03 1f aa           mov      x1, xzr
0x00ec4d94: f7 0f 00 b9           str      w23, [sp, #0xc]
0x00ec4d98: 79 dd 26 94           bl       #0x187c37c
0x00ec4d9c: a9 92 00 d0           adrp     x9, #0x211a000
0x00ec4da0: c8 02 40 f9           ldr      x8, [x22]
0x00ec4da4: 29 2d 46 f9           ldr      x9, [x9, #0xc58]
0x00ec4da8: e1 03 00 aa           mov      x1, x0
0x00ec4dac: e3 03 1f aa           mov      x3, xzr
0x00ec4db0: e0 03 08 aa           mov      x0, x8
0x00ec4db4: 22 01 40 f9           ldr      x2, [x9]
0x00ec4db8: 60 94 21 94           bl       #0x1729f38
0x00ec4dbc: e1 03 1f aa           mov      x1, xzr
0x00ec4dc0: ad 0c 3c 94           bl       #0x1dc8074
0x00ec4dc4: c0 0b 00 b4           cbz      x0, #0xec4f3c
0x00ec4dc8: a1 02 40 f9           ldr      x1, [x21]
0x00ec4dcc: f5 48 02 94           bl       #0xf571a0
0x00ec4dd0: 78 0b 00 b4           cbz      x24, #0xec4f3c
0x00ec4dd4: f4 03 00 aa           mov      x20, x0
0x00ec4dd8: c0 00 00 b4           cbz      x0, #0xec4df0
0x00ec4ddc: 08 03 40 f9           ldr      x8, [x24]
0x00ec4de0: e0 03 14 aa           mov      x0, x20
0x00ec4de4: 01 21 40 f9           ldr      x1, [x8, #0x40]
0x00ec4de8: 8a 63 fd 97           bl       #0xe1dc10
0x00ec4dec: c0 0a 00 b4           cbz      x0, #0xec4f44
0x00ec4df0: 08 1b 40 b9           ldr      w8, [x24, #0x18]
0x00ec4df4: bf 03 08 eb           cmp      x29, x8
0x00ec4df8: 42 0a 00 54           b.hs     #0xec4f40
0x00ec4dfc: 08 0f 1d 8b           add      x8, x24, x29, lsl #3
0x00ec4e00: 14 11 00 f9           str      x20, [x8, #0x20]
0x00ec4e04: 78 3e 43 f9           ldr      x24, [x19, #0x678]
0x00ec4e08: e0 33 00 91           add      x0, sp, #0xc
0x00ec4e0c: e1 03 1f aa           mov      x1, xzr
0x00ec4e10: f7 0f 00 b9           str      w23, [sp, #0xc]
0x00ec4e14: 5a dd 26 94           bl       #0x187c37c
0x00ec4e18: c8 02 40 f9           ldr      x8, [x22]
0x00ec4e1c: 22 03 40 f9           ldr      x2, [x25]
0x00ec4e20: e1 03 00 aa           mov      x1, x0
0x00ec4e24: e3 03 1f aa           mov      x3, xzr
0x00ec4e28: e0 03 08 aa           mov      x0, x8
0x00ec4e2c: 43 94 21 94           bl       #0x1729f38
0x00ec4e30: e1 03 1f aa           mov      x1, xzr
0x00ec4e34: 90 0c 3c 94           bl       #0x1dc8074
0x00ec4e38: 20 08 00 b4           cbz      x0, #0xec4f3c
0x00ec4e3c: a1 02 40 f9           ldr      x1, [x21]
0x00ec4e40: d8 48 02 94           bl       #0xf571a0
0x00ec4e44: d8 07 00 b4           cbz      x24, #0xec4f3c
0x00ec4e48: f4 03 00 aa           mov      x20, x0
0x00ec4e4c: c0 00 00 b4           cbz      x0, #0xec4e64
0x00ec4e50: 08 03 40 f9           ldr      x8, [x24]
0x00ec4e54: e0 03 14 aa           mov      x0, x20
0x00ec4e58: 01 21 40 f9           ldr      x1, [x8, #0x40]
0x00ec4e5c: 6d 63 fd 97           bl       #0xe1dc10
0x00ec4e60: 20 07 00 b4           cbz      x0, #0xec4f44
0x00ec4e64: 08 1b 40 b9           ldr      w8, [x24, #0x18]
0x00ec4e68: bf 03 08 eb           cmp      x29, x8
0x00ec4e6c: a2 06 00 54           b.hs     #0xec4f40
0x00ec4e70: 08 0f 1d 8b           add      x8, x24, x29, lsl #3
0x00ec4e74: 14 11 00 f9           str      x20, [x8, #0x20]
0x00ec4e78: 78 42 43 f9           ldr      x24, [x19, #0x680]
0x00ec4e7c: e0 33 00 91           add      x0, sp, #0xc
0x00ec4e80: e1 03 1f aa           mov      x1, xzr
0x00ec4e84: f7 0f 00 b9           str      w23, [sp, #0xc]
0x00ec4e88: 3d dd 26 94           bl       #0x187c37c
0x00ec4e8c: c8 02 40 f9           ldr      x8, [x22]
0x00ec4e90: 62 03 40 f9           ldr      x2, [x27]
0x00ec4e94: e1 03 00 aa           mov      x1, x0
0x00ec4e98: e3 03 1f aa           mov      x3, xzr
0x00ec4e9c: e0 03 08 aa           mov      x0, x8
0x00ec4ea0: 26 94 21 94           bl       #0x1729f38
0x00ec4ea4: e1 03 1f aa           mov      x1, xzr
0x00ec4ea8: 73 0c 3c 94           bl       #0x1dc8074
0x00ec4eac: 80 04 00 b4           cbz      x0, #0xec4f3c
0x00ec4eb0: 81 03 40 f9           ldr      x1, [x28]
0x00ec4eb4: bb 48 02 94           bl       #0xf571a0
0x00ec4eb8: 38 04 00 b4           cbz      x24, #0xec4f3c
0x00ec4ebc: f4 03 00 aa           mov      x20, x0
0x00ec4ec0: c0 00 00 b4           cbz      x0, #0xec4ed8
0x00ec4ec4: 08 03 40 f9           ldr      x8, [x24]
0x00ec4ec8: e0 03 14 aa           mov      x0, x20
0x00ec4ecc: 01 21 40 f9           ldr      x1, [x8, #0x40]
0x00ec4ed0: 50 63 fd 97           bl       #0xe1dc10
0x00ec4ed4: 80 03 00 b4           cbz      x0, #0xec4f44
0x00ec4ed8: 08 1b 40 b9           ldr      w8, [x24, #0x18]
0x00ec4edc: bf 03 08 eb           cmp      x29, x8
0x00ec4ee0: 02 03 00 54           b.hs     #0xec4f40
0x00ec4ee4: e8 03 1f 2a           mov      w8, wzr
0x00ec4ee8: 09 0f 1d 8b           add      x9, x24, x29, lsl #3
0x00ec4eec: 3d 00 80 52           mov      w29, #1
0x00ec4ef0: 34 11 00 f9           str      x20, [x9, #0x20]
0x00ec4ef4: 9a f0 07 37           tbnz     w26, #0, #0xec4d04
0x00ec4ef8: a8 92 00 d0           adrp     x8, #0x211a000
0x00ec4efc: 08 35 46 f9           ldr      x8, [x8, #0xc68]
0x00ec4f00: e1 03 1f aa           mov      x1, xzr
0x00ec4f04: 00 01 40 f9           ldr      x0, [x8]
0x00ec4f08: 5b 0c 3c 94           bl       #0x1dc8074
0x00ec4f0c: 80 01 00 b4           cbz      x0, #0xec4f3c
0x00ec4f10: a1 02 40 f9           ldr      x1, [x21]
0x00ec4f14: a3 48 02 94           bl       #0xf571a0
0x00ec4f18: 60 5e 03 f9           str      x0, [x19, #0x6b8]
0x00ec4f1c: f4 4f 46 a9           ldp      x20, x19, [sp, #0x60]
0x00ec4f20: f6 57 45 a9           ldp      x22, x21, [sp, #0x50]
0x00ec4f24: f8 5f 44 a9           ldp      x24, x23, [sp, #0x40]
0x00ec4f28: fa 67 43 a9           ldp      x26, x25, [sp, #0x30]
0x00ec4f2c: fc 6f 42 a9           ldp      x28, x27, [sp, #0x20]
0x00ec4f30: fd 7b 41 a9           ldp      x29, x30, [sp, #0x10]
0x00ec4f34: ff c3 01 91           add      sp, sp, #0x70
0x00ec4f38: c0 03 5f d6           ret      
